; Function Attrs: mustprogress uwtable
define noundef i64 @_ZNK32pxrInternal_v0_24__pxrReserved__21HdBasisCurvesTopology11ComputeHashEv(ptr noundef nonnull align 8 dereferenceable(200) %0) unnamed_addr #0 align 2 personality ptr @__gxx_personality_v0 {
  %2 = alloca %"class.pxrInternal_v0_24__pxrReserved__::TraceKey", align 8
  %3 = alloca %"class.pxrInternal_v0_24__pxrReserved__::TraceKey", align 8
  %4 = load atomic i32, ptr @_ZN32pxrInternal_v0_24__pxrReserved__14TraceCollector10_isEnabledE acquire, align 4
  %5 = icmp eq i32 %4, 1
  br i1 %5, label %6, label %_ZN32pxrInternal_v0_24__pxrReserved__14TraceScopeAutoC2ERKNS_18TraceStaticKeyDataE.exit

6:                                                ; preds = %1
  fence syncscope("singlethread") seq_cst
  %7 = tail call { i32, i32 } asm sideeffect "lfence\0A\09rdtsc\0A\09lfence", "={ax},={dx},~{dirflag},~{fpsr},~{flags}"() #13, !srcloc !7
  %8 = extractvalue { i32, i32 } %7, 0
  %9 = extractvalue { i32, i32 } %7, 1
  %10 = zext i32 %9 to i64
  %11 = shl nuw i64 %10, 32
  %12 = zext i32 %8 to i64
  br label %_ZN32pxrInternal_v0_24__pxrReserved__14TraceScopeAutoC2ERKNS_18TraceStaticKeyDataE.exit

_ZN32pxrInternal_v0_24__pxrReserved__14TraceScopeAutoC2ERKNS_18TraceStaticKeyDataE.exit: ; preds = %1, %6
  %.sroa.7.0 = phi i64 [ %12, %6 ], [ 0, %1 ]
  %.sroa.11.0 = phi i64 [ %11, %6 ], [ 0, %1 ]
  %13 = getelementptr inbounds nuw i8, ptr %0, i64 16
  %14 = invoke noundef i64 @_ZN32pxrInternal_v0_24__pxrReserved__10ArchHash64EPKcmm(ptr noundef nonnull %13, i64 noundef 8, i64 noundef 0)
          to label %15 unwind label %40

15:                                               ; preds = %_ZN32pxrInternal_v0_24__pxrReserved__14TraceScopeAutoC2ERKNS_18TraceStaticKeyDataE.exit
  %16 = getelementptr inbounds nuw i8, ptr %0, i64 8
  %17 = invoke noundef i64 @_ZN32pxrInternal_v0_24__pxrReserved__10ArchHash64EPKcmm(ptr noundef nonnull %16, i64 noundef 8, i64 noundef %14)
          to label %18 unwind label %40

18:                                               ; preds = %15
  %19 = getelementptr inbounds nuw i8, ptr %0, i64 24
  %20 = invoke noundef i64 @_ZN32pxrInternal_v0_24__pxrReserved__10ArchHash64EPKcmm(ptr noundef nonnull %19, i64 noundef 8, i64 noundef %17)
          to label %21 unwind label %40

21:                                               ; preds = %18
  %22 = getelementptr inbounds nuw i8, ptr %0, i64 32
  %23 = invoke noundef ptr @_ZNK32pxrInternal_v0_24__pxrReserved__7VtArrayIiE5cdataEv(ptr noundef nonnull align 8 dereferenceable(40) %22)
          to label %24 unwind label %40

24:                                               ; preds = %21
  %25 = invoke noundef i64 @_ZNK32pxrInternal_v0_24__pxrReserved__7VtArrayIiE4sizeEv(ptr noundef nonnull align 8 dereferenceable(40) %22)
          to label %26 unwind label %40

26:                                               ; preds = %24
  %27 = shl i64 %25, 2
  %28 = invoke noundef i64 @_ZN32pxrInternal_v0_24__pxrReserved__10ArchHash64EPKcmm(ptr noundef %23, i64 noundef %27, i64 noundef %20)
          to label %29 unwind label %40

29:                                               ; preds = %26
  %30 = getelementptr inbounds nuw i8, ptr %0, i64 72
  %31 = invoke noundef ptr @_ZNK32pxrInternal_v0_24__pxrReserved__7VtArrayIiE5cdataEv(ptr noundef nonnull align 8 dereferenceable(40) %30)
          to label %32 unwind label %40

32:                                               ; preds = %29
  %33 = invoke noundef i64 @_ZNK32pxrInternal_v0_24__pxrReserved__7VtArrayIiE4sizeEv(ptr noundef nonnull align 8 dereferenceable(40) %30)
          to label %34 unwind label %40

34:                                               ; preds = %32
  %35 = shl i64 %33, 2
  %36 = invoke noundef i64 @_ZN32pxrInternal_v0_24__pxrReserved__10ArchHash64EPKcmm(ptr noundef %31, i64 noundef %35, i64 noundef %28)
          to label %37 unwind label %40

37:                                               ; preds = %34
  call void @llvm.lifetime.start.p0(i64 8, ptr nonnull %3)
  br i1 %5, label %38, label %_ZN32pxrInternal_v0_24__pxrReserved__14TraceScopeAutoD2Ev.exit

38:                                               ; preds = %37
  fence syncscope("singlethread") seq_cst
  %39 = tail call noundef i64 asm sideeffect "rdtscp\0A\09shl $$32, %rdx\0A\09or %rdx, $0\0A\09lfence", "={ax},~{rcx},~{rdx},~{cc},~{dirflag},~{fpsr},~{flags}"() #13, !srcloc !8
  store ptr @_ZZNK32pxrInternal_v0_24__pxrReserved__21HdBasisCurvesTopology11ComputeHashEvE16TraceKeyData_121, ptr %3, align 8
  %.sroa.7.12.insert.insert = or disjoint i64 %.sroa.11.0, %.sroa.7.0
  call void @_ZN32pxrInternal_v0_24__pxrReserved__14TraceCollector5ScopeERKNS_8TraceKeyEmm(ptr noundef nonnull align 8 dereferenceable(8) %3, i64 noundef %.sroa.7.12.insert.insert, i64 noundef %39) #13
  br label %_ZN32pxrInternal_v0_24__pxrReserved__14TraceScopeAutoD2Ev.exit

_ZN32pxrInternal_v0_24__pxrReserved__14TraceScopeAutoD2Ev.exit: ; preds = %37, %38
  call void @llvm.lifetime.end.p0(i64 8, ptr nonnull %3)
  ret i64 %36

40:                                               ; preds = %34, %32, %29, %26, %24, %21, %18, %15, %_ZN32pxrInternal_v0_24__pxrReserved__14TraceScopeAutoC2ERKNS_18TraceStaticKeyDataE.exit
  %41 = landingpad { ptr, i32 }
          cleanup
  call void @llvm.lifetime.start.p0(i64 8, ptr nonnull %2)
  br i1 %5, label %42, label %_ZN32pxrInternal_v0_24__pxrReserved__14TraceScopeAutoD2Ev.exit8

42:                                               ; preds = %40
  fence syncscope("singlethread") seq_cst
  %43 = tail call noundef i64 asm sideeffect "rdtscp\0A\09shl $$32, %rdx\0A\09or %rdx, $0\0A\09lfence", "={ax},~{rcx},~{rdx},~{cc},~{dirflag},~{fpsr},~{flags}"() #13, !srcloc !8
  store ptr @_ZZNK32pxrInternal_v0_24__pxrReserved__21HdBasisCurvesTopology11ComputeHashEvE16TraceKeyData_121, ptr %2, align 8
  %.sroa.7.12.insert.insert14 = or disjoint i64 %.sroa.11.0, %.sroa.7.0
  call void @_ZN32pxrInternal_v0_24__pxrReserved__14TraceCollector5ScopeERKNS_8TraceKeyEmm(ptr noundef nonnull align 8 dereferenceable(8) %2, i64 noundef %.sroa.7.12.insert.insert14, i64 noundef %43) #13
  br label %_ZN32pxrInternal_v0_24__pxrReserved__14TraceScopeAutoD2Ev.exit8

_ZN32pxrInternal_v0_24__pxrReserved__14TraceScopeAutoD2Ev.exit8: ; preds = %40, %42
  call void @llvm.lifetime.end.p0(i64 8, ptr nonnull %2)
  resume { ptr, i32 } %41
}